; Function Attrs: mustprogress uwtable
define hidden noundef zeroext i1 @_ZN4lean10is_matcherERKNS_16elab_environmentERKNS_8list_refINS_8pair_refINS_4nameENS_4exprEEEEE(ptr noundef nonnull readonly align 8 captures(none) dereferenceable(8) %0, ptr noundef nonnull readonly align 8 captures(none) dereferenceable(8) %1) local_unnamed_addr #0 {
  %.05.i = load ptr, ptr %1, align 8, !tbaa !22
  %3 = ptrtoint ptr %.05.i to i64
  %4 = and i64 %3, 1
  %.not6.i = icmp eq i64 %4, 0
  br i1 %.not6.i, label %.lr.ph.i, label %_ZN4lean6lengthINS_8pair_refINS_4nameENS_4exprEEEEEmRKNS_8list_refIT_EE.exit.thread

.lr.ph.i:                                         ; preds = %2, %.lr.ph.i
  %.08.i = phi ptr [ %.0.i, %.lr.ph.i ], [ %.05.i, %2 ]
  %.047.i = phi i64 [ %5, %.lr.ph.i ], [ 0, %2 ]
  %5 = add i64 %.047.i, 1
  %6 = getelementptr inbounds nuw i8, ptr %.08.i, i64 16
  %.0.i = load ptr, ptr %6, align 8, !tbaa !22
  %7 = ptrtoint ptr %.0.i to i64
  %8 = and i64 %7, 1
  %.not.i = icmp eq i64 %8, 0
  br i1 %.not.i, label %.lr.ph.i, label %_ZN4lean6lengthINS_8pair_refINS_4nameENS_4exprEEEEEmRKNS_8list_refIT_EE.exit, !llvm.loop !29

_ZN4lean6lengthINS_8pair_refINS_4nameENS_4exprEEEEEmRKNS_8list_refIT_EE.exit: ; preds = %.lr.ph.i
  %9 = icmp eq i64 %.047.i, 0
  br i1 %9, label %10, label %_ZN4lean6lengthINS_8pair_refINS_4nameENS_4exprEEEEEmRKNS_8list_refIT_EE.exit.thread

10:                                               ; preds = %_ZN4lean6lengthINS_8pair_refINS_4nameENS_4exprEEEEEmRKNS_8list_refIT_EE.exit
  %11 = getelementptr inbounds nuw i8, ptr %.05.i, i64 8
  %12 = load ptr, ptr %11, align 8, !tbaa !13
  %13 = getelementptr inbounds nuw i8, ptr %12, i64 8
  %14 = load ptr, ptr %0, align 8, !tbaa !13
  %15 = ptrtoint ptr %14 to i64
  %16 = and i64 %15, 1
  %.not.i.i.i = icmp eq i64 %16, 0
  br i1 %.not.i.i.i, label %17, label %_ZNK4lean10object_ref10to_obj_argEv.exit.i

17:                                               ; preds = %10
  %.val.i.i.i.i = load i32, ptr %14, align 4, !tbaa !25
  %18 = icmp sgt i32 %.val.i.i.i.i, 0
  br i1 %18, label %19, label %21, !prof !28

19:                                               ; preds = %17
  %20 = add nuw nsw i32 %.val.i.i.i.i, 1
  store i32 %20, ptr %14, align 4, !tbaa !25
  br label %_ZNK4lean10object_ref10to_obj_argEv.exit.i

21:                                               ; preds = %17
  %.not.i.i.i.i = icmp eq i32 %.val.i.i.i.i, 0
  br i1 %.not.i.i.i.i, label %_ZNK4lean10object_ref10to_obj_argEv.exit.i, label %22

22:                                               ; preds = %21
  tail call void @lean_inc_ref_cold(ptr noundef nonnull %14)
  %.pre.i.i = load ptr, ptr %0, align 8, !tbaa !13
  br label %_ZNK4lean10object_ref10to_obj_argEv.exit.i

_ZNK4lean10object_ref10to_obj_argEv.exit.i:       ; preds = %22, %21, %19, %10
  %23 = phi ptr [ %14, %10 ], [ %14, %19 ], [ %14, %21 ], [ %.pre.i.i, %22 ]
  %24 = load ptr, ptr %13, align 8, !tbaa !13
  %25 = ptrtoint ptr %24 to i64
  %26 = and i64 %25, 1
  %.not.i.i2.i = icmp eq i64 %26, 0
  br i1 %.not.i.i2.i, label %27, label %_ZN4lean10is_matcherERKNS_16elab_environmentERKNS_4nameE.exit

27:                                               ; preds = %_ZNK4lean10object_ref10to_obj_argEv.exit.i
  %.val.i.i.i3.i = load i32, ptr %24, align 4, !tbaa !25
  %28 = icmp sgt i32 %.val.i.i.i3.i, 0
  br i1 %28, label %29, label %31, !prof !28

29:                                               ; preds = %27
  %30 = add nuw nsw i32 %.val.i.i.i3.i, 1
  store i32 %30, ptr %24, align 4, !tbaa !25
  br label %_ZN4lean10is_matcherERKNS_16elab_environmentERKNS_4nameE.exit

31:                                               ; preds = %27
  %.not.i.i.i4.i = icmp eq i32 %.val.i.i.i3.i, 0
  br i1 %.not.i.i.i4.i, label %_ZN4lean10is_matcherERKNS_16elab_environmentERKNS_4nameE.exit, label %32

32:                                               ; preds = %31
  tail call void @lean_inc_ref_cold(ptr noundef nonnull %24)
  %.pre.i5.i = load ptr, ptr %13, align 8, !tbaa !13
  br label %_ZN4lean10is_matcherERKNS_16elab_environmentERKNS_4nameE.exit

_ZN4lean10is_matcherERKNS_16elab_environmentERKNS_4nameE.exit: ; preds = %_ZNK4lean10object_ref10to_obj_argEv.exit.i, %29, %31, %32
  %33 = phi ptr [ %24, %_ZNK4lean10object_ref10to_obj_argEv.exit.i ], [ %24, %29 ], [ %24, %31 ], [ %.pre.i5.i, %32 ]
  %34 = tail call zeroext i8 @lean_is_matcher(ptr noundef %23, ptr noundef %33)
  %35 = icmp ne i8 %34, 0
  br label %_ZN4lean6lengthINS_8pair_refINS_4nameENS_4exprEEEEEmRKNS_8list_refIT_EE.exit.thread

_ZN4lean6lengthINS_8pair_refINS_4nameENS_4exprEEEEEmRKNS_8list_refIT_EE.exit.thread: ; preds = %2, %_ZN4lean10is_matcherERKNS_16elab_environmentERKNS_4nameE.exit, %_ZN4lean6lengthINS_8pair_refINS_4nameENS_4exprEEEEEmRKNS_8list_refIT_EE.exit
  %36 = phi i1 [ false, %_ZN4lean6lengthINS_8pair_refINS_4nameENS_4exprEEEEEmRKNS_8list_refIT_EE.exit ], [ %35, %_ZN4lean10is_matcherERKNS_16elab_environmentERKNS_4nameE.exit ], [ false, %2 ]
  ret i1 %36
}